; Function Attrs: mustprogress nofree norecurse nosync nounwind memory(argmem: readwrite, inaccessiblemem: write) uwtable
define dso_local void @_ZN4llvm4SHA14hashENS_8ArrayRefIhEE(ptr dead_on_unwind noalias writable writeonly sret(%"struct.std::array.0") align 1 captures(none) %0, ptr %1, i64 %2) local_unnamed_addr #2 align 2 {
  %4 = alloca %union.anon.1, align 4
  %5 = alloca %"class.llvm::SHA1", align 4
  %6 = getelementptr inbounds nuw i8, ptr %5, i64 64
  store i32 1732584193, ptr %6, align 4
  %7 = getelementptr inbounds nuw i8, ptr %5, i64 68
  store i32 -271733879, ptr %7, align 4
  %8 = getelementptr inbounds nuw i8, ptr %5, i64 72
  store i32 -1732584194, ptr %8, align 4
  %9 = getelementptr inbounds nuw i8, ptr %5, i64 76
  store i32 271733878, ptr %9, align 4
  %10 = getelementptr inbounds nuw i8, ptr %5, i64 80
  store i32 -1009589776, ptr %10, align 4
  %11 = getelementptr inbounds nuw i8, ptr %5, i64 84
  store i32 0, ptr %11, align 4
  %12 = getelementptr inbounds nuw i8, ptr %5, i64 88
  store i8 0, ptr %12, align 4
  call void @_ZN4llvm4SHA16updateENS_8ArrayRefIhEE(ptr noundef nonnull align 4 dereferenceable(92) %5, ptr %1, i64 %2)
  call void @llvm.lifetime.start.p0(i64 20, ptr nonnull %4)
  call void @_ZN4llvm4SHA13padEv(ptr noundef nonnull align 4 dereferenceable(92) %5), !noalias !13
  br label %13

13:                                               ; preds = %13, %3
  %indvars.iv.i.i = phi i64 [ 0, %3 ], [ %indvars.iv.next.i.i, %13 ]
  %14 = getelementptr inbounds nuw [5 x i32], ptr %6, i64 0, i64 %indvars.iv.i.i
  %15 = load i32, ptr %14, align 4, !noalias !13
  %16 = tail call noundef i32 @llvm.bswap.i32(i32 %15)
  %17 = getelementptr inbounds nuw [5 x i32], ptr %4, i64 0, i64 %indvars.iv.i.i
  store i32 %16, ptr %17, align 4, !noalias !13
  %indvars.iv.next.i.i = add nuw nsw i64 %indvars.iv.i.i, 1
  %exitcond.not.i.i = icmp eq i64 %indvars.iv.next.i.i, 5
  br i1 %exitcond.not.i.i, label %_ZN4llvm4SHA15finalEv.exit, label %13, !llvm.loop !9

_ZN4llvm4SHA15finalEv.exit:                       ; preds = %13
  call void @llvm.memcpy.p0.p0.i64(ptr noundef nonnull align 1 dereferenceable(20) %0, ptr noundef nonnull align 4 dereferenceable(20) %4, i64 20, i1 false)
  call void @llvm.lifetime.end.p0(i64 20, ptr nonnull %4)
  ret void
}